target datalayout = "e-m:e-p270:32:32-p271:32:32-p272:64:64-i64:64-i128:128-f80:128-n8:16:32:64-S128"
target triple = "x86_64-pc-linux-gnu"

@ff_ctzll_c.debruijn_ctz64 = internal constant [64 x i8] c"\00\01\025\03\076\1B\04&)\08\2270\1C>\05'.,*\16\09\18#;81\12\1D\0B?4\06\1A%(!/=-+\15\17:\11\0A3\19$ <\149\102\1F\13\0F\1E\0E\0D\0C", align 16

; Function Attrs: alwaysinline nounwind willreturn memory(none) uwtable
define internal i32 @ff_ctzll_c(i64 noundef %0) #2 {
  %2 = alloca i64, align 8
  store i64 %0, ptr %2, align 8, !tbaa !12
  %3 = load i64, ptr %2, align 8, !tbaa !12
  %4 = load i64, ptr %2, align 8, !tbaa !12
  %5 = sub i64 0, %4
  %6 = and i64 %3, %5
  %7 = mul i64 %6, 157587932685088877
  %8 = lshr i64 %7, 58
  %9 = getelementptr inbounds nuw [64 x i8], ptr @ff_ctzll_c.debruijn_ctz64, i64 0, i64 %8
  %10 = load i8, ptr %9, align 1, !tbaa !14
  %11 = zext i8 %10 to i32
  ret i32 %11
}

; Function Attrs: nounwind willreturn memory(none) uwtable
define i64 @av_gcd(i64 noundef %0, i64 noundef %1) #0 {
  %3 = alloca i64, align 8
  %4 = alloca i64, align 8
  %5 = alloca i64, align 8
  %6 = alloca i32, align 4
  %7 = alloca i32, align 4
  %8 = alloca i32, align 4
  %9 = alloca i64, align 8
  %10 = alloca i64, align 8
  %11 = alloca i32, align 4
  %12 = alloca i64, align 8
  store i64 %0, ptr %4, align 8, !tbaa !4
  store i64 %1, ptr %5, align 8, !tbaa !4
  call void @llvm.lifetime.start.p0(i64 4, ptr %6) #11
  call void @llvm.lifetime.start.p0(i64 4, ptr %7) #11
  call void @llvm.lifetime.start.p0(i64 4, ptr %8) #11
  call void @llvm.lifetime.start.p0(i64 8, ptr %9) #11
  call void @llvm.lifetime.start.p0(i64 8, ptr %10) #11
  %13 = load i64, ptr %4, align 8, !tbaa !4
  %14 = icmp eq i64 %13, 0
  br i1 %14, label %15, label %17

15:                                               ; preds = %2
  %16 = load i64, ptr %5, align 8, !tbaa !4
  store i64 %16, ptr %3, align 8
  store i32 1, ptr %11, align 4
  br label %75

17:                                               ; preds = %2
  %18 = load i64, ptr %5, align 8, !tbaa !4
  %19 = icmp eq i64 %18, 0
  br i1 %19, label %20, label %22

20:                                               ; preds = %17
  %21 = load i64, ptr %4, align 8, !tbaa !4
  store i64 %21, ptr %3, align 8
  store i32 1, ptr %11, align 4
  br label %75

22:                                               ; preds = %17
  %23 = load i64, ptr %4, align 8, !tbaa !4
  %24 = call i32 @ff_ctzll_c(i64 noundef %23) #12
  store i32 %24, ptr %6, align 4, !tbaa !8
  %25 = load i64, ptr %5, align 8, !tbaa !4
  %26 = call i32 @ff_ctzll_c(i64 noundef %25) #12
  store i32 %26, ptr %7, align 4, !tbaa !8
  %27 = load i32, ptr %6, align 4, !tbaa !8
  %28 = load i32, ptr %7, align 4, !tbaa !8
  %29 = icmp sgt i32 %27, %28
  br i1 %29, label %30, label %32

30:                                               ; preds = %22
  %31 = load i32, ptr %7, align 4, !tbaa !8
  br label %34

32:                                               ; preds = %22
  %33 = load i32, ptr %6, align 4, !tbaa !8
  br label %34

34:                                               ; preds = %32, %30
  %35 = phi i32 [ %31, %30 ], [ %33, %32 ]
  store i32 %35, ptr %8, align 4, !tbaa !8
  %36 = load i64, ptr %4, align 8, !tbaa !4
  %37 = load i32, ptr %6, align 4, !tbaa !8
  %38 = zext i32 %37 to i64
  %39 = ashr i64 %36, %38
  %40 = call i64 @llvm.abs.i64(i64 %39, i1 true)
  store i64 %40, ptr %9, align 8, !tbaa !4
  %41 = load i64, ptr %5, align 8, !tbaa !4
  %42 = load i32, ptr %7, align 4, !tbaa !8
  %43 = zext i32 %42 to i64
  %44 = ashr i64 %41, %43
  %45 = call i64 @llvm.abs.i64(i64 %44, i1 true)
  store i64 %45, ptr %10, align 8, !tbaa !4
  br label %46

46:                                               ; preds = %61, %34
  %47 = load i64, ptr %9, align 8, !tbaa !4
  %48 = load i64, ptr %10, align 8, !tbaa !4
  %49 = icmp ne i64 %47, %48
  br i1 %49, label %50, label %70

50:                                               ; preds = %46
  %51 = load i64, ptr %9, align 8, !tbaa !4
  %52 = load i64, ptr %10, align 8, !tbaa !4
  %53 = icmp sgt i64 %51, %52
  br i1 %53, label %54, label %61

54:                                               ; preds = %50
  br label %55

55:                                               ; preds = %54
  call void @llvm.lifetime.start.p0(i64 8, ptr %12) #11
  %56 = load i64, ptr %9, align 8, !tbaa !4
  store i64 %56, ptr %12, align 8, !tbaa !4
  %57 = load i64, ptr %10, align 8, !tbaa !4
  store i64 %57, ptr %9, align 8, !tbaa !4
  %58 = load i64, ptr %12, align 8, !tbaa !4
  store i64 %58, ptr %10, align 8, !tbaa !4
  call void @llvm.lifetime.end.p0(i64 8, ptr %12) #11
  br label %59

59:                                               ; preds = %55
  br label %60

60:                                               ; preds = %59
  br label %61

61:                                               ; preds = %60, %50
  %62 = load i64, ptr %9, align 8, !tbaa !4
  %63 = load i64, ptr %10, align 8, !tbaa !4
  %64 = sub nsw i64 %63, %62
  store i64 %64, ptr %10, align 8, !tbaa !4
  %65 = load i64, ptr %10, align 8, !tbaa !4
  %66 = call i32 @ff_ctzll_c(i64 noundef %65) #12
  %67 = load i64, ptr %10, align 8, !tbaa !4
  %68 = zext i32 %66 to i64
  %69 = ashr i64 %67, %68
  store i64 %69, ptr %10, align 8, !tbaa !4
  br label %46, !llvm.loop !10

70:                                               ; preds = %46
  %71 = load i64, ptr %9, align 8, !tbaa !4
  %72 = load i32, ptr %8, align 4, !tbaa !8
  %73 = zext i32 %72 to i64
  %74 = shl i64 %71, %73
  store i64 %74, ptr %3, align 8
  store i32 1, ptr %11, align 4
  br label %75

75:                                               ; preds = %70, %20, %15
  call void @llvm.lifetime.end.p0(i64 8, ptr %10) #11
  call void @llvm.lifetime.end.p0(i64 8, ptr %9) #11
  call void @llvm.lifetime.end.p0(i64 4, ptr %8) #11
  call void @llvm.lifetime.end.p0(i64 4, ptr %7) #11
  call void @llvm.lifetime.end.p0(i64 4, ptr %6) #11
  %76 = load i64, ptr %3, align 8
  ret i64 %76
}